target datalayout = "e-m:e-p270:32:32-p271:32:32-p272:64:64-i64:64-i128:128-f80:128-n8:16:32:64-S128"
target triple = "x86_64-pc-linux-gnu"

; Function Attrs: nounwind uwtable
define internal void @highbd_dc_128_predictor(ptr noundef %0, i64 noundef %1, i32 noundef %2, i32 noundef %3, ptr noundef %4, ptr noundef %5, i32 noundef %6) #0 {
  %8 = alloca ptr, align 8
  %9 = alloca i64, align 8
  %10 = alloca i32, align 4
  %11 = alloca i32, align 4
  %12 = alloca ptr, align 8
  %13 = alloca ptr, align 8
  %14 = alloca i32, align 4
  %15 = alloca i32, align 4
  store ptr %0, ptr %8, align 8
  store i64 %1, ptr %9, align 8
  store i32 %2, ptr %10, align 4
  store i32 %3, ptr %11, align 4
  store ptr %4, ptr %12, align 8
  store ptr %5, ptr %13, align 8
  store i32 %6, ptr %14, align 4
  store i32 0, ptr %15, align 4
  br label %16

16:                                               ; preds = %31, %7
  %17 = load i32, ptr %15, align 4
  %18 = load i32, ptr %11, align 4
  %19 = icmp slt i32 %17, %18
  br i1 %19, label %20, label %34

20:                                               ; preds = %16
  %21 = load ptr, ptr %8, align 8
  %22 = load i32, ptr %14, align 4
  %23 = sub nsw i32 %22, 8
  %24 = shl i32 128, %23
  %25 = load i32, ptr %10, align 4
  %26 = sext i32 %25 to i64
  %27 = call ptr @aom_memset16(ptr noundef %21, i32 noundef %24, i64 noundef %26)
  %28 = load i64, ptr %9, align 8
  %29 = load ptr, ptr %8, align 8
  %30 = getelementptr inbounds i16, ptr %29, i64 %28
  store ptr %30, ptr %8, align 8
  br label %31

31:                                               ; preds = %20
  %32 = load i32, ptr %15, align 4
  %33 = add nsw i32 %32, 1
  store i32 %33, ptr %15, align 4
  br label %16, !llvm.loop !38

34:                                               ; preds = %16
  ret void
}

; Function Attrs: nounwind uwtable
define hidden void @aom_highbd_dc_128_predictor_16x16_c(ptr noundef %0, i64 noundef %1, ptr noundef %2, ptr noundef %3, i32 noundef %4) #0 {
  %6 = alloca ptr, align 8
  %7 = alloca i64, align 8
  %8 = alloca ptr, align 8
  %9 = alloca ptr, align 8
  %10 = alloca i32, align 4
  store ptr %0, ptr %6, align 8
  store i64 %1, ptr %7, align 8
  store ptr %2, ptr %8, align 8
  store ptr %3, ptr %9, align 8
  store i32 %4, ptr %10, align 4
  %11 = load ptr, ptr %6, align 8
  %12 = load i64, ptr %7, align 8
  %13 = load ptr, ptr %8, align 8
  %14 = load ptr, ptr %9, align 8
  %15 = load i32, ptr %10, align 4
  call void @highbd_dc_128_predictor(ptr noundef %11, i64 noundef %12, i32 noundef 16, i32 noundef 16, ptr noundef %13, ptr noundef %14, i32 noundef %15)
  ret void
}